; Function Attrs: nounwind sspstrong uwtable
define dso_local i64 @rb_str_offset(i64 noundef %0, i64 noundef %1) local_unnamed_addr #1 {
  %3 = alloca i64, align 8
  %4 = inttoptr i64 %0 to ptr
  %5 = load i64, ptr %4, align 8, !tbaa !7, !noalias !197
  %6 = and i64 %5, 8192
  %.not.i.i = icmp eq i64 %6, 0
  %7 = getelementptr inbounds nuw i8, ptr %4, i64 24
  br i1 %.not.i.i, label %RSTRING_END.exit, label %8

8:                                                ; preds = %2
  %.sroa.2.0.copyload.i = load ptr, ptr %7, align 8
  br label %RSTRING_END.exit

RSTRING_END.exit:                                 ; preds = %2, %8
  %.sroa.5.0.i = phi ptr [ %.sroa.2.0.copyload.i, %8 ], [ %7, %2 ]
  %.sroa.3.0.in.i = getelementptr inbounds nuw i8, ptr %4, i64 16
  %.sroa.3.0.i = load i64, ptr %.sroa.3.0.in.i, align 8, !tbaa !26
  %9 = getelementptr i8, ptr %.sroa.5.0.i, i64 %.sroa.3.0.i
  %10 = trunc i64 %5 to i32
  %11 = lshr i32 %10, 22
  %12 = and i32 %11, 127
  %13 = icmp eq i32 %12, 127
  br i1 %13, label %14, label %get_encoding.exit

14:                                               ; preds = %RSTRING_END.exit
  %15 = tail call i32 @rb_enc_get_index(i64 noundef %0) #29
  br label %get_encoding.exit

get_encoding.exit:                                ; preds = %RSTRING_END.exit, %14
  %.0.i.i = phi i32 [ %15, %14 ], [ %12, %RSTRING_END.exit ]
  %16 = tail call ptr @rb_enc_from_index(i32 noundef %.0.i.i) #29
  %17 = tail call fastcc zeroext i1 @single_byte_optimizable(i64 noundef %0)
  call void @llvm.lifetime.start.p0(i64 8, ptr nonnull %3)
  store i64 %1, ptr %3, align 8, !tbaa !26
  br i1 %17, label %18, label %20

18:                                               ; preds = %get_encoding.exit
  %19 = getelementptr i8, ptr %.sroa.5.0.i, i64 %1
  br label %str_offset.exit

20:                                               ; preds = %get_encoding.exit
  %21 = call fastcc ptr @str_nth_len(ptr noundef %.sroa.5.0.i, ptr noundef %9, ptr noundef %3, ptr noundef %16)
  br label %str_offset.exit

str_offset.exit:                                  ; preds = %18, %20
  %.010.i.i = phi ptr [ %19, %18 ], [ %21, %20 ]
  %.not12.i.i = icmp eq ptr %.010.i.i, null
  %22 = icmp ugt ptr %.010.i.i, %9
  %spec.select.i.i = select i1 %22, ptr %9, ptr %.010.i.i
  %.0.i.i7 = select i1 %.not12.i.i, ptr null, ptr %spec.select.i.i
  call void @llvm.lifetime.end.p0(i64 8, ptr nonnull %3)
  %.not.i = icmp eq ptr %.0.i.i7, null
  %23 = ptrtoint ptr %.sroa.5.0.i to i64
  %.0.v.v.i = select i1 %.not.i, ptr %9, ptr %.0.i.i7
  %.0.v.i = ptrtoint ptr %.0.v.v.i to i64
  %.0.i = sub i64 %.0.v.i, %23
  ret i64 %.0.i
}